ARM GAS  /tmp/ccXwcwdc.s 			page 1


   1              		.cpu cortex-m3
   2              		.arch armv7-m
   3              		.fpu softvfp
   4              		.eabi_attribute 20, 1
   5              		.eabi_attribute 21, 1
   6              		.eabi_attribute 23, 3
   7              		.eabi_attribute 24, 1
   8              		.eabi_attribute 25, 1
   9              		.eabi_attribute 26, 1
  10              		.eabi_attribute 30, 1
  11              		.eabi_attribute 34, 1
  12              		.eabi_attribute 18, 4
  13              		.file	"eeprom_io.c"
  14              		.text
  15              	.Ltext0:
  16              		.cfi_sections	.debug_frame
  17              		.file 1 "External/eeprom_driver/Src/eeprom_io.c"
  18              		.section	.text.eeprom_io_read,"ax",%progbits
  19              		.align	1
  20              		.global	eeprom_io_read
  21              		.syntax unified
  22              		.thumb
  23              		.thumb_func
  25              	eeprom_io_read:
  26              	.LVL0:
  27              	.LFB65:
   1:External/eeprom_driver/Src/eeprom_io.c **** #include "eeprom_io.h"
   2:External/eeprom_driver/Src/eeprom_io.c **** #include "stm32f1xx.h"
   3:External/eeprom_driver/Src/eeprom_io.c **** #include "stm32f1xx_hal_i2c.h"
   4:External/eeprom_driver/Src/eeprom_io.c **** 
   5:External/eeprom_driver/Src/eeprom_io.c **** extern I2C_HandleTypeDef *i2c;
   6:External/eeprom_driver/Src/eeprom_io.c **** 
   7:External/eeprom_driver/Src/eeprom_io.c **** eeprom_status eeprom_io_read(
   8:External/eeprom_driver/Src/eeprom_io.c ****     uint8_t *const data,
   9:External/eeprom_driver/Src/eeprom_io.c ****     const uint8_t data_size
  10:External/eeprom_driver/Src/eeprom_io.c **** )
  11:External/eeprom_driver/Src/eeprom_io.c **** {
  28              		.loc 1 11 1 view -0
  29              		.cfi_startproc
  30              		@ args = 0, pretend = 0, frame = 0
  31              		@ frame_needed = 0, uses_anonymous_args = 0
  32              		.loc 1 11 1 is_stmt 0 view .LVU1
  33 0000 00B5     		push	{lr}
  34              	.LCFI0:
  35              		.cfi_def_cfa_offset 4
  36              		.cfi_offset 14, -4
  37 0002 83B0     		sub	sp, sp, #12
  38              	.LCFI1:
  39              		.cfi_def_cfa_offset 16
  40 0004 0246     		mov	r2, r0
  41 0006 0B46     		mov	r3, r1
  12:External/eeprom_driver/Src/eeprom_io.c ****     return (eeprom_status)HAL_I2C_Master_Receive(
  42              		.loc 1 12 5 is_stmt 1 view .LVU2
  43              		.loc 1 12 27 is_stmt 0 view .LVU3
  44 0008 6421     		movs	r1, #100
  45              	.LVL1:
  46              		.loc 1 12 27 view .LVU4
ARM GAS  /tmp/ccXwcwdc.s 			page 2


  47 000a 0091     		str	r1, [sp]
  48 000c A021     		movs	r1, #160
  49 000e 0348     		ldr	r0, .L3
  50              	.LVL2:
  51              		.loc 1 12 27 view .LVU5
  52 0010 0068     		ldr	r0, [r0]
  53 0012 FFF7FEFF 		bl	HAL_I2C_Master_Receive
  54              	.LVL3:
  13:External/eeprom_driver/Src/eeprom_io.c ****         i2c, DEV_ADDR, data, data_size, EEPROM_TIMEOUT
  14:External/eeprom_driver/Src/eeprom_io.c ****     );
  15:External/eeprom_driver/Src/eeprom_io.c **** }
  55              		.loc 1 15 1 view .LVU6
  56 0016 03B0     		add	sp, sp, #12
  57              	.LCFI2:
  58              		.cfi_def_cfa_offset 4
  59              		@ sp needed
  60 0018 5DF804FB 		ldr	pc, [sp], #4
  61              	.L4:
  62              		.align	2
  63              	.L3:
  64 001c 00000000 		.word	i2c
  65              		.cfi_endproc
  66              	.LFE65:
  68              		.section	.text.eeprom_io_write,"ax",%progbits
  69              		.align	1
  70              		.global	eeprom_io_write
  71              		.syntax unified
  72              		.thumb
  73              		.thumb_func
  75              	eeprom_io_write:
  76              	.LVL4:
  77              	.LFB66:
  16:External/eeprom_driver/Src/eeprom_io.c **** 
  17:External/eeprom_driver/Src/eeprom_io.c **** eeprom_status eeprom_io_write(
  18:External/eeprom_driver/Src/eeprom_io.c ****     const uint8_t *const data,
  19:External/eeprom_driver/Src/eeprom_io.c ****     const uint8_t data_size
  20:External/eeprom_driver/Src/eeprom_io.c **** )
  21:External/eeprom_driver/Src/eeprom_io.c **** {
  78              		.loc 1 21 1 is_stmt 1 view -0
  79              		.cfi_startproc
  80              		@ args = 0, pretend = 0, frame = 0
  81              		@ frame_needed = 0, uses_anonymous_args = 0
  82              		.loc 1 21 1 is_stmt 0 view .LVU8
  83 0000 00B5     		push	{lr}
  84              	.LCFI3:
  85              		.cfi_def_cfa_offset 4
  86              		.cfi_offset 14, -4
  87 0002 83B0     		sub	sp, sp, #12
  88              	.LCFI4:
  89              		.cfi_def_cfa_offset 16
  90 0004 0246     		mov	r2, r0
  91 0006 0B46     		mov	r3, r1
  22:External/eeprom_driver/Src/eeprom_io.c ****     return (eeprom_status)HAL_I2C_Master_Transmit(
  92              		.loc 1 22 5 is_stmt 1 view .LVU9
  93              		.loc 1 22 27 is_stmt 0 view .LVU10
  94 0008 6421     		movs	r1, #100
  95              	.LVL5:
ARM GAS  /tmp/ccXwcwdc.s 			page 3


  96              		.loc 1 22 27 view .LVU11
  97 000a 0091     		str	r1, [sp]
  98 000c A021     		movs	r1, #160
  99 000e 0348     		ldr	r0, .L7
 100              	.LVL6:
 101              		.loc 1 22 27 view .LVU12
 102 0010 0068     		ldr	r0, [r0]
 103 0012 FFF7FEFF 		bl	HAL_I2C_Master_Transmit
 104              	.LVL7:
  23:External/eeprom_driver/Src/eeprom_io.c ****         i2c, DEV_ADDR, (uint8_t*)data, data_size, EEPROM_TIMEOUT
  24:External/eeprom_driver/Src/eeprom_io.c ****     );
  25:External/eeprom_driver/Src/eeprom_io.c **** }
 105              		.loc 1 25 1 view .LVU13
 106 0016 03B0     		add	sp, sp, #12
 107              	.LCFI5:
 108              		.cfi_def_cfa_offset 4
 109              		@ sp needed
 110 0018 5DF804FB 		ldr	pc, [sp], #4
 111              	.L8:
 112              		.align	2
 113              	.L7:
 114 001c 00000000 		.word	i2c
 115              		.cfi_endproc
 116              	.LFE66:
 118              		.text
 119              	.Letext0:
 120              		.file 2 "/usr/local/src/arm-gnu-toolchain-13.2/arm-none-eabi/include/machine/_default_types.h"
 121              		.file 3 "/usr/local/src/arm-gnu-toolchain-13.2/arm-none-eabi/include/sys/_stdint.h"
 122              		.file 4 "External/eeprom_driver/Inc/eeprom_defs.h"
 123              		.file 5 "Drivers/CMSIS/Device/ST/STM32F1xx/Include/stm32f103xb.h"
 124              		.file 6 "Drivers/STM32F1xx_HAL_Driver/Inc/stm32f1xx_hal_def.h"
 125              		.file 7 "Drivers/STM32F1xx_HAL_Driver/Inc/stm32f1xx_hal_dma.h"
 126              		.file 8 "Drivers/STM32F1xx_HAL_Driver/Inc/stm32f1xx_hal_i2c.h"
ARM GAS  /tmp/ccXwcwdc.s 			page 4

