ARM GAS  /tmp/ccCgKUWg.s 			page 1


   1              		.cpu cortex-m3
   2              		.arch armv7-m
   3              		.fpu softvfp
   4              		.eabi_attribute 20, 1
   5              		.eabi_attribute 21, 1
   6              		.eabi_attribute 23, 3
   7              		.eabi_attribute 24, 1
   8              		.eabi_attribute 25, 1
   9              		.eabi_attribute 26, 1
  10              		.eabi_attribute 30, 1
  11              		.eabi_attribute 34, 1
  12              		.eabi_attribute 18, 4
  13              		.file	"EEPROM_driver.c"
  14              		.text
  15              	.Ltext0:
  16              		.cfi_sections	.debug_frame
  17              		.file 1 "External/EEPROM_Driver/Src/EEPROM_driver.c"
  18              		.section	.text.EEPROM_check_link,"ax",%progbits
  19              		.align	1
  20              		.global	EEPROM_check_link
  21              		.syntax unified
  22              		.thumb
  23              		.thumb_func
  25              	EEPROM_check_link:
  26              	.LVL0:
  27              	.LFB65:
   1:External/EEPROM_Driver/Src/EEPROM_driver.c **** #include "EEPROM_driver.h"
   2:External/EEPROM_Driver/Src/EEPROM_driver.c **** #include "EEPROM_types.h"
   3:External/EEPROM_Driver/Src/EEPROM_driver.c **** #include "EEPROM_param.h"
   4:External/EEPROM_Driver/Src/EEPROM_driver.c **** #include <stdint.h>
   5:External/EEPROM_Driver/Src/EEPROM_driver.c **** 
   6:External/EEPROM_Driver/Src/EEPROM_driver.c **** HAL_StatusTypeDef EEPROM_check_link(const I2C_HandleTypeDef *const i2c)
   7:External/EEPROM_Driver/Src/EEPROM_driver.c **** {
  28              		.loc 1 7 1 view -0
  29              		.cfi_startproc
  30              		@ args = 0, pretend = 0, frame = 0
  31              		@ frame_needed = 0, uses_anonymous_args = 0
  32              		.loc 1 7 1 is_stmt 0 view .LVU1
  33 0000 F0B5     		push	{r4, r5, r6, r7, lr}
  34              	.LCFI0:
  35              		.cfi_def_cfa_offset 20
  36              		.cfi_offset 4, -20
  37              		.cfi_offset 5, -16
  38              		.cfi_offset 6, -12
  39              		.cfi_offset 7, -8
  40              		.cfi_offset 14, -4
  41 0002 83B0     		sub	sp, sp, #12
  42              	.LCFI1:
  43              		.cfi_def_cfa_offset 32
  44 0004 0546     		mov	r5, r0
   8:External/EEPROM_Driver/Src/EEPROM_driver.c ****     static uint8_t data[] = { 0x0, 0x0, 0x55 };
  45              		.loc 1 8 5 is_stmt 1 view .LVU2
   9:External/EEPROM_Driver/Src/EEPROM_driver.c ****     static uint8_t result = 0x0;
  46              		.loc 1 9 5 view .LVU3
  10:External/EEPROM_Driver/Src/EEPROM_driver.c **** 
  11:External/EEPROM_Driver/Src/EEPROM_driver.c ****     HAL_StatusTypeDef status = HAL_I2C_Master_Transmit(
  47              		.loc 1 11 5 view .LVU4
ARM GAS  /tmp/ccCgKUWg.s 			page 2


  48              		.loc 1 11 32 is_stmt 0 view .LVU5
  49 0006 6423     		movs	r3, #100
  50 0008 0093     		str	r3, [sp]
  51 000a 0323     		movs	r3, #3
  52 000c 124A     		ldr	r2, .L5
  53 000e A021     		movs	r1, #160
  54 0010 FFF7FEFF 		bl	HAL_I2C_Master_Transmit
  55              	.LVL1:
  56              		.loc 1 11 32 view .LVU6
  57 0014 0446     		mov	r4, r0
  58              	.LVL2:
  12:External/EEPROM_Driver/Src/EEPROM_driver.c ****         i2c, DEV_ADDR, &data, 3, EEPROM_TIMEOUT
  13:External/EEPROM_Driver/Src/EEPROM_driver.c ****     );
  14:External/EEPROM_Driver/Src/EEPROM_driver.c ****     HAL_Delay(WRITE_CYCLE_TIMEOUT);
  59              		.loc 1 14 5 is_stmt 1 view .LVU7
  60 0016 1420     		movs	r0, #20
  61 0018 FFF7FEFF 		bl	HAL_Delay
  62              	.LVL3:
  15:External/EEPROM_Driver/Src/EEPROM_driver.c ****     
  16:External/EEPROM_Driver/Src/EEPROM_driver.c ****     if (status)
  63              		.loc 1 16 5 view .LVU8
  64              		.loc 1 16 8 is_stmt 0 view .LVU9
  65 001c 14B1     		cbz	r4, .L4
  66              	.L2:
  67              	.LVL4:
  17:External/EEPROM_Driver/Src/EEPROM_driver.c ****         return status;
  18:External/EEPROM_Driver/Src/EEPROM_driver.c **** 
  19:External/EEPROM_Driver/Src/EEPROM_driver.c ****     status = HAL_I2C_Master_Transmit(
  20:External/EEPROM_Driver/Src/EEPROM_driver.c ****         i2c, DEV_ADDR, &data, 2, EEPROM_TIMEOUT
  21:External/EEPROM_Driver/Src/EEPROM_driver.c ****     );
  22:External/EEPROM_Driver/Src/EEPROM_driver.c ****     status |= HAL_I2C_Master_Receive(
  23:External/EEPROM_Driver/Src/EEPROM_driver.c ****         i2c, DEV_ADDR, &result, 1, EEPROM_TIMEOUT
  24:External/EEPROM_Driver/Src/EEPROM_driver.c ****     );
  25:External/EEPROM_Driver/Src/EEPROM_driver.c **** 
  26:External/EEPROM_Driver/Src/EEPROM_driver.c ****     if (result != 0x55)
  27:External/EEPROM_Driver/Src/EEPROM_driver.c ****         status |= HAL_ERROR;
  28:External/EEPROM_Driver/Src/EEPROM_driver.c ****     return status;
  29:External/EEPROM_Driver/Src/EEPROM_driver.c **** }
  68              		.loc 1 29 1 view .LVU10
  69 001e 2046     		mov	r0, r4
  70 0020 03B0     		add	sp, sp, #12
  71              	.LCFI2:
  72              		.cfi_remember_state
  73              		.cfi_def_cfa_offset 20
  74              		@ sp needed
  75 0022 F0BD     		pop	{r4, r5, r6, r7, pc}
  76              	.LVL5:
  77              	.L4:
  78              	.LCFI3:
  79              		.cfi_restore_state
  19:External/EEPROM_Driver/Src/EEPROM_driver.c ****         i2c, DEV_ADDR, &data, 2, EEPROM_TIMEOUT
  80              		.loc 1 19 5 is_stmt 1 view .LVU11
  19:External/EEPROM_Driver/Src/EEPROM_driver.c ****         i2c, DEV_ADDR, &data, 2, EEPROM_TIMEOUT
  81              		.loc 1 19 14 is_stmt 0 view .LVU12
  82 0024 6427     		movs	r7, #100
  83 0026 0097     		str	r7, [sp]
  84 0028 0223     		movs	r3, #2
ARM GAS  /tmp/ccCgKUWg.s 			page 3


  85 002a 0B4A     		ldr	r2, .L5
  86 002c A021     		movs	r1, #160
  87 002e 2846     		mov	r0, r5
  88 0030 FFF7FEFF 		bl	HAL_I2C_Master_Transmit
  89              	.LVL6:
  90 0034 0446     		mov	r4, r0
  91              	.LVL7:
  22:External/EEPROM_Driver/Src/EEPROM_driver.c ****         i2c, DEV_ADDR, &result, 1, EEPROM_TIMEOUT
  92              		.loc 1 22 5 is_stmt 1 view .LVU13
  22:External/EEPROM_Driver/Src/EEPROM_driver.c ****         i2c, DEV_ADDR, &result, 1, EEPROM_TIMEOUT
  93              		.loc 1 22 15 is_stmt 0 view .LVU14
  94 0036 094E     		ldr	r6, .L5+4
  95 0038 0097     		str	r7, [sp]
  96 003a 0123     		movs	r3, #1
  97 003c 3246     		mov	r2, r6
  98 003e A021     		movs	r1, #160
  99 0040 2846     		mov	r0, r5
 100 0042 FFF7FEFF 		bl	HAL_I2C_Master_Receive
 101              	.LVL8:
  22:External/EEPROM_Driver/Src/EEPROM_driver.c ****         i2c, DEV_ADDR, &result, 1, EEPROM_TIMEOUT
 102              		.loc 1 22 12 discriminator 1 view .LVU15
 103 0046 0443     		orrs	r4, r4, r0
 104              	.LVL9:
  22:External/EEPROM_Driver/Src/EEPROM_driver.c ****         i2c, DEV_ADDR, &result, 1, EEPROM_TIMEOUT
 105              		.loc 1 22 12 discriminator 1 view .LVU16
 106 0048 E4B2     		uxtb	r4, r4
 107              	.LVL10:
  26:External/EEPROM_Driver/Src/EEPROM_driver.c ****         status |= HAL_ERROR;
 108              		.loc 1 26 5 is_stmt 1 view .LVU17
  26:External/EEPROM_Driver/Src/EEPROM_driver.c ****         status |= HAL_ERROR;
 109              		.loc 1 26 16 is_stmt 0 view .LVU18
 110 004a 3378     		ldrb	r3, [r6]	@ zero_extendqisi2
  26:External/EEPROM_Driver/Src/EEPROM_driver.c ****         status |= HAL_ERROR;
 111              		.loc 1 26 8 view .LVU19
 112 004c 552B     		cmp	r3, #85
 113 004e E6D0     		beq	.L2
  27:External/EEPROM_Driver/Src/EEPROM_driver.c ****     return status;
 114              		.loc 1 27 9 is_stmt 1 view .LVU20
  27:External/EEPROM_Driver/Src/EEPROM_driver.c ****     return status;
 115              		.loc 1 27 16 is_stmt 0 view .LVU21
 116 0050 44F00104 		orr	r4, r4, #1
 117              	.LVL11:
  27:External/EEPROM_Driver/Src/EEPROM_driver.c ****     return status;
 118              		.loc 1 27 16 view .LVU22
 119 0054 E3E7     		b	.L2
 120              	.L6:
 121 0056 00BF     		.align	2
 122              	.L5:
 123 0058 00000000 		.word	data.1
 124 005c 00000000 		.word	result.0
 125              		.cfi_endproc
 126              	.LFE65:
 128              		.section	.bss.result.0,"aw",%nobits
 131              	result.0:
 132 0000 00       		.space	1
 133              		.section	.data.data.1,"aw"
 134              		.align	2
ARM GAS  /tmp/ccCgKUWg.s 			page 4


 137              	data.1:
 138 0000 000055   		.ascii	"\000\000U"
 139              		.text
 140              	.Letext0:
 141              		.file 2 "/usr/local/src/arm-gnu-toolchain-13.2/arm-none-eabi/include/machine/_default_types.h"
 142              		.file 3 "/usr/local/src/arm-gnu-toolchain-13.2/arm-none-eabi/include/sys/_stdint.h"
 143              		.file 4 "Drivers/CMSIS/Device/ST/STM32F1xx/Include/stm32f103xb.h"
 144              		.file 5 "Drivers/STM32F1xx_HAL_Driver/Inc/stm32f1xx_hal_def.h"
 145              		.file 6 "Drivers/STM32F1xx_HAL_Driver/Inc/stm32f1xx_hal_dma.h"
 146              		.file 7 "Drivers/STM32F1xx_HAL_Driver/Inc/stm32f1xx_hal_i2c.h"
 147              		.file 8 "External/EEPROM_Driver/Inc/EEPROM_types.h"
 148              		.file 9 "Drivers/STM32F1xx_HAL_Driver/Inc/stm32f1xx_hal.h"
ARM GAS  /tmp/ccCgKUWg.s 			page 5

