ARM GAS  /tmp/cc1919Ep.s 			page 1


   1              		.cpu cortex-m3
   2              		.arch armv7-m
   3              		.fpu softvfp
   4              		.eabi_attribute 20, 1
   5              		.eabi_attribute 21, 1
   6              		.eabi_attribute 23, 3
   7              		.eabi_attribute 24, 1
   8              		.eabi_attribute 25, 1
   9              		.eabi_attribute 26, 1
  10              		.eabi_attribute 30, 1
  11              		.eabi_attribute 34, 1
  12              		.eabi_attribute 18, 4
  13              		.file	"main.c"
  14              		.text
  15              	.Ltext0:
  16              		.cfi_sections	.debug_frame
  17              		.file 1 "Core/Src/main.c"
  18              		.section	.text.MX_GPIO_Init,"ax",%progbits
  19              		.align	1
  20              		.syntax unified
  21              		.thumb
  22              		.thumb_func
  24              	MX_GPIO_Init:
  25              	.LFB69:
   1:Core/Src/main.c **** /* USER CODE BEGIN Header */
   2:Core/Src/main.c **** /**
   3:Core/Src/main.c ****   ******************************************************************************
   4:Core/Src/main.c ****   * @file           : main.c
   5:Core/Src/main.c ****   * @brief          : Main program body
   6:Core/Src/main.c ****   ******************************************************************************
   7:Core/Src/main.c ****   * @attention
   8:Core/Src/main.c ****   *
   9:Core/Src/main.c ****   * Copyright (c) 2024 STMicroelectronics.
  10:Core/Src/main.c ****   * All rights reserved.
  11:Core/Src/main.c ****   *
  12:Core/Src/main.c ****   * This software is licensed under terms that can be found in the LICENSE file
  13:Core/Src/main.c ****   * in the root directory of this software component.
  14:Core/Src/main.c ****   * If no LICENSE file comes with this software, it is provided AS-IS.
  15:Core/Src/main.c ****   *
  16:Core/Src/main.c ****   ******************************************************************************
  17:Core/Src/main.c ****   */
  18:Core/Src/main.c **** /* USER CODE END Header */
  19:Core/Src/main.c **** /* Includes ------------------------------------------------------------------*/
  20:Core/Src/main.c **** #include "main.h"
  21:Core/Src/main.c **** 
  22:Core/Src/main.c **** /* Private includes ----------------------------------------------------------*/
  23:Core/Src/main.c **** /* USER CODE BEGIN Includes */
  24:Core/Src/main.c **** #include "eeprom_driver.h"
  25:Core/Src/main.c **** /* USER CODE END Includes */
  26:Core/Src/main.c **** 
  27:Core/Src/main.c **** /* Private typedef -----------------------------------------------------------*/
  28:Core/Src/main.c **** /* USER CODE BEGIN PTD */
  29:Core/Src/main.c **** 
  30:Core/Src/main.c **** /* USER CODE END PTD */
  31:Core/Src/main.c **** 
  32:Core/Src/main.c **** /* Private define ------------------------------------------------------------*/
  33:Core/Src/main.c **** /* USER CODE BEGIN PD */
ARM GAS  /tmp/cc1919Ep.s 			page 2


  34:Core/Src/main.c **** 
  35:Core/Src/main.c **** /* USER CODE END PD */
  36:Core/Src/main.c **** 
  37:Core/Src/main.c **** /* Private macro -------------------------------------------------------------*/
  38:Core/Src/main.c **** /* USER CODE BEGIN PM */
  39:Core/Src/main.c **** 
  40:Core/Src/main.c **** /* USER CODE END PM */
  41:Core/Src/main.c **** 
  42:Core/Src/main.c **** /* Private variables ---------------------------------------------------------*/
  43:Core/Src/main.c **** I2C_HandleTypeDef hi2c2;
  44:Core/Src/main.c **** 
  45:Core/Src/main.c **** UART_HandleTypeDef huart1;
  46:Core/Src/main.c **** 
  47:Core/Src/main.c **** /* USER CODE BEGIN PV */
  48:Core/Src/main.c **** I2C_HandleTypeDef *eeprom_i2c = &hi2c2; // For eeprom_io
  49:Core/Src/main.c **** /* USER CODE END PV */
  50:Core/Src/main.c **** 
  51:Core/Src/main.c **** /* Private function prototypes -----------------------------------------------*/
  52:Core/Src/main.c **** void SystemClock_Config(void);
  53:Core/Src/main.c **** static void MX_GPIO_Init(void);
  54:Core/Src/main.c **** static void MX_I2C2_Init(void);
  55:Core/Src/main.c **** static void MX_USART1_UART_Init(void);
  56:Core/Src/main.c **** /* USER CODE BEGIN PFP */
  57:Core/Src/main.c **** 
  58:Core/Src/main.c **** /* USER CODE END PFP */
  59:Core/Src/main.c **** 
  60:Core/Src/main.c **** /* Private user code ---------------------------------------------------------*/
  61:Core/Src/main.c **** /* USER CODE BEGIN 0 */
  62:Core/Src/main.c **** 
  63:Core/Src/main.c **** /* USER CODE END 0 */
  64:Core/Src/main.c **** 
  65:Core/Src/main.c **** /**
  66:Core/Src/main.c ****   * @brief  The application entry point.
  67:Core/Src/main.c ****   * @retval int
  68:Core/Src/main.c ****   */
  69:Core/Src/main.c **** int main(void)
  70:Core/Src/main.c **** {
  71:Core/Src/main.c ****   /* USER CODE BEGIN 1 */
  72:Core/Src/main.c **** 
  73:Core/Src/main.c ****   /* USER CODE END 1 */
  74:Core/Src/main.c **** 
  75:Core/Src/main.c ****   /* MCU Configuration--------------------------------------------------------*/
  76:Core/Src/main.c **** 
  77:Core/Src/main.c ****   /* Reset of all peripherals, Initializes the Flash interface and the Systick. */
  78:Core/Src/main.c ****   HAL_Init();
  79:Core/Src/main.c **** 
  80:Core/Src/main.c ****   /* USER CODE BEGIN Init */
  81:Core/Src/main.c **** 
  82:Core/Src/main.c ****   /* USER CODE END Init */
  83:Core/Src/main.c **** 
  84:Core/Src/main.c ****   /* Configure the system clock */
  85:Core/Src/main.c ****   SystemClock_Config();
  86:Core/Src/main.c **** 
  87:Core/Src/main.c ****   /* USER CODE BEGIN SysInit */
  88:Core/Src/main.c **** 
  89:Core/Src/main.c ****   /* USER CODE END SysInit */
  90:Core/Src/main.c **** 
ARM GAS  /tmp/cc1919Ep.s 			page 3


  91:Core/Src/main.c ****   /* Initialize all configured peripherals */
  92:Core/Src/main.c ****   MX_GPIO_Init();
  93:Core/Src/main.c ****   MX_I2C2_Init();
  94:Core/Src/main.c ****   MX_USART1_UART_Init();
  95:Core/Src/main.c ****   /* USER CODE BEGIN 2 */
  96:Core/Src/main.c **** 
  97:Core/Src/main.c ****   /* USER CODE END 2 */
  98:Core/Src/main.c **** 
  99:Core/Src/main.c ****   /* Infinite loop */
 100:Core/Src/main.c ****   /* USER CODE BEGIN WHILE */
 101:Core/Src/main.c **** 
 102:Core/Src/main.c ****   eeprom_status status = eeprom_check_link();
 103:Core/Src/main.c **** 
 104:Core/Src/main.c ****   if (status)
 105:Core/Src/main.c ****     Error_Handler();
 106:Core/Src/main.c **** 
 107:Core/Src/main.c ****   while (1)
 108:Core/Src/main.c ****   {
 109:Core/Src/main.c ****     /* USER CODE END WHILE */
 110:Core/Src/main.c **** 
 111:Core/Src/main.c ****     /* USER CODE BEGIN 3 */
 112:Core/Src/main.c ****   }
 113:Core/Src/main.c ****   /* USER CODE END 3 */
 114:Core/Src/main.c **** }
 115:Core/Src/main.c **** 
 116:Core/Src/main.c **** /**
 117:Core/Src/main.c ****   * @brief System Clock Configuration
 118:Core/Src/main.c ****   * @retval None
 119:Core/Src/main.c ****   */
 120:Core/Src/main.c **** void SystemClock_Config(void)
 121:Core/Src/main.c **** {
 122:Core/Src/main.c ****   RCC_OscInitTypeDef RCC_OscInitStruct = {0};
 123:Core/Src/main.c ****   RCC_ClkInitTypeDef RCC_ClkInitStruct = {0};
 124:Core/Src/main.c **** 
 125:Core/Src/main.c ****   /** Initializes the RCC Oscillators according to the specified parameters
 126:Core/Src/main.c ****   * in the RCC_OscInitTypeDef structure.
 127:Core/Src/main.c ****   */
 128:Core/Src/main.c ****   RCC_OscInitStruct.OscillatorType = RCC_OSCILLATORTYPE_HSI;
 129:Core/Src/main.c ****   RCC_OscInitStruct.HSIState = RCC_HSI_ON;
 130:Core/Src/main.c ****   RCC_OscInitStruct.HSICalibrationValue = RCC_HSICALIBRATION_DEFAULT;
 131:Core/Src/main.c ****   RCC_OscInitStruct.PLL.PLLState = RCC_PLL_NONE;
 132:Core/Src/main.c ****   if (HAL_RCC_OscConfig(&RCC_OscInitStruct) != HAL_OK)
 133:Core/Src/main.c ****   {
 134:Core/Src/main.c ****     Error_Handler();
 135:Core/Src/main.c ****   }
 136:Core/Src/main.c **** 
 137:Core/Src/main.c ****   /** Initializes the CPU, AHB and APB buses clocks
 138:Core/Src/main.c ****   */
 139:Core/Src/main.c ****   RCC_ClkInitStruct.ClockType = RCC_CLOCKTYPE_HCLK|RCC_CLOCKTYPE_SYSCLK
 140:Core/Src/main.c ****                               |RCC_CLOCKTYPE_PCLK1|RCC_CLOCKTYPE_PCLK2;
 141:Core/Src/main.c ****   RCC_ClkInitStruct.SYSCLKSource = RCC_SYSCLKSOURCE_HSI;
 142:Core/Src/main.c ****   RCC_ClkInitStruct.AHBCLKDivider = RCC_SYSCLK_DIV1;
 143:Core/Src/main.c ****   RCC_ClkInitStruct.APB1CLKDivider = RCC_HCLK_DIV1;
 144:Core/Src/main.c ****   RCC_ClkInitStruct.APB2CLKDivider = RCC_HCLK_DIV1;
 145:Core/Src/main.c **** 
 146:Core/Src/main.c ****   if (HAL_RCC_ClockConfig(&RCC_ClkInitStruct, FLASH_LATENCY_0) != HAL_OK)
 147:Core/Src/main.c ****   {
ARM GAS  /tmp/cc1919Ep.s 			page 4


 148:Core/Src/main.c ****     Error_Handler();
 149:Core/Src/main.c ****   }
 150:Core/Src/main.c **** }
 151:Core/Src/main.c **** 
 152:Core/Src/main.c **** /**
 153:Core/Src/main.c ****   * @brief I2C2 Initialization Function
 154:Core/Src/main.c ****   * @param None
 155:Core/Src/main.c ****   * @retval None
 156:Core/Src/main.c ****   */
 157:Core/Src/main.c **** static void MX_I2C2_Init(void)
 158:Core/Src/main.c **** {
 159:Core/Src/main.c **** 
 160:Core/Src/main.c ****   /* USER CODE BEGIN I2C2_Init 0 */
 161:Core/Src/main.c **** 
 162:Core/Src/main.c ****   /* USER CODE END I2C2_Init 0 */
 163:Core/Src/main.c **** 
 164:Core/Src/main.c ****   /* USER CODE BEGIN I2C2_Init 1 */
 165:Core/Src/main.c **** 
 166:Core/Src/main.c ****   /* USER CODE END I2C2_Init 1 */
 167:Core/Src/main.c ****   hi2c2.Instance = I2C2;
 168:Core/Src/main.c ****   hi2c2.Init.ClockSpeed = 100000;
 169:Core/Src/main.c ****   hi2c2.Init.DutyCycle = I2C_DUTYCYCLE_2;
 170:Core/Src/main.c ****   hi2c2.Init.OwnAddress1 = 0;
 171:Core/Src/main.c ****   hi2c2.Init.AddressingMode = I2C_ADDRESSINGMODE_7BIT;
 172:Core/Src/main.c ****   hi2c2.Init.DualAddressMode = I2C_DUALADDRESS_DISABLE;
 173:Core/Src/main.c ****   hi2c2.Init.OwnAddress2 = 0;
 174:Core/Src/main.c ****   hi2c2.Init.GeneralCallMode = I2C_GENERALCALL_DISABLE;
 175:Core/Src/main.c ****   hi2c2.Init.NoStretchMode = I2C_NOSTRETCH_DISABLE;
 176:Core/Src/main.c ****   if (HAL_I2C_Init(&hi2c2) != HAL_OK)
 177:Core/Src/main.c ****   {
 178:Core/Src/main.c ****     Error_Handler();
 179:Core/Src/main.c ****   }
 180:Core/Src/main.c ****   /* USER CODE BEGIN I2C2_Init 2 */
 181:Core/Src/main.c **** 
 182:Core/Src/main.c ****   /* USER CODE END I2C2_Init 2 */
 183:Core/Src/main.c **** 
 184:Core/Src/main.c **** }
 185:Core/Src/main.c **** 
 186:Core/Src/main.c **** /**
 187:Core/Src/main.c ****   * @brief USART1 Initialization Function
 188:Core/Src/main.c ****   * @param None
 189:Core/Src/main.c ****   * @retval None
 190:Core/Src/main.c ****   */
 191:Core/Src/main.c **** static void MX_USART1_UART_Init(void)
 192:Core/Src/main.c **** {
 193:Core/Src/main.c **** 
 194:Core/Src/main.c ****   /* USER CODE BEGIN USART1_Init 0 */
 195:Core/Src/main.c **** 
 196:Core/Src/main.c ****   /* USER CODE END USART1_Init 0 */
 197:Core/Src/main.c **** 
 198:Core/Src/main.c ****   /* USER CODE BEGIN USART1_Init 1 */
 199:Core/Src/main.c **** 
 200:Core/Src/main.c ****   /* USER CODE END USART1_Init 1 */
 201:Core/Src/main.c ****   huart1.Instance = USART1;
 202:Core/Src/main.c ****   huart1.Init.BaudRate = 115200;
 203:Core/Src/main.c ****   huart1.Init.WordLength = UART_WORDLENGTH_8B;
 204:Core/Src/main.c ****   huart1.Init.StopBits = UART_STOPBITS_1;
ARM GAS  /tmp/cc1919Ep.s 			page 5


 205:Core/Src/main.c ****   huart1.Init.Parity = UART_PARITY_NONE;
 206:Core/Src/main.c ****   huart1.Init.Mode = UART_MODE_TX_RX;
 207:Core/Src/main.c ****   huart1.Init.HwFlowCtl = UART_HWCONTROL_NONE;
 208:Core/Src/main.c ****   huart1.Init.OverSampling = UART_OVERSAMPLING_16;
 209:Core/Src/main.c ****   if (HAL_UART_Init(&huart1) != HAL_OK)
 210:Core/Src/main.c ****   {
 211:Core/Src/main.c ****     Error_Handler();
 212:Core/Src/main.c ****   }
 213:Core/Src/main.c ****   /* USER CODE BEGIN USART1_Init 2 */
 214:Core/Src/main.c **** 
 215:Core/Src/main.c ****   /* USER CODE END USART1_Init 2 */
 216:Core/Src/main.c **** 
 217:Core/Src/main.c **** }
 218:Core/Src/main.c **** 
 219:Core/Src/main.c **** /**
 220:Core/Src/main.c ****   * @brief GPIO Initialization Function
 221:Core/Src/main.c ****   * @param None
 222:Core/Src/main.c ****   * @retval None
 223:Core/Src/main.c ****   */
 224:Core/Src/main.c **** static void MX_GPIO_Init(void)
 225:Core/Src/main.c **** {
  26              		.loc 1 225 1 view -0
  27              		.cfi_startproc
  28              		@ args = 0, pretend = 0, frame = 8
  29              		@ frame_needed = 0, uses_anonymous_args = 0
  30              		@ link register save eliminated.
  31 0000 82B0     		sub	sp, sp, #8
  32              	.LCFI0:
  33              		.cfi_def_cfa_offset 8
 226:Core/Src/main.c **** /* USER CODE BEGIN MX_GPIO_Init_1 */
 227:Core/Src/main.c **** /* USER CODE END MX_GPIO_Init_1 */
 228:Core/Src/main.c **** 
 229:Core/Src/main.c ****   /* GPIO Ports Clock Enable */
 230:Core/Src/main.c ****   __HAL_RCC_GPIOB_CLK_ENABLE();
  34              		.loc 1 230 3 view .LVU1
  35              	.LBB4:
  36              		.loc 1 230 3 view .LVU2
  37              		.loc 1 230 3 view .LVU3
  38 0002 0A4B     		ldr	r3, .L3
  39 0004 9A69     		ldr	r2, [r3, #24]
  40 0006 42F00802 		orr	r2, r2, #8
  41 000a 9A61     		str	r2, [r3, #24]
  42              		.loc 1 230 3 view .LVU4
  43 000c 9A69     		ldr	r2, [r3, #24]
  44 000e 02F00802 		and	r2, r2, #8
  45 0012 0092     		str	r2, [sp]
  46              		.loc 1 230 3 view .LVU5
  47 0014 009A     		ldr	r2, [sp]
  48              	.LBE4:
  49              		.loc 1 230 3 view .LVU6
 231:Core/Src/main.c ****   __HAL_RCC_GPIOA_CLK_ENABLE();
  50              		.loc 1 231 3 view .LVU7
  51              	.LBB5:
  52              		.loc 1 231 3 view .LVU8
  53              		.loc 1 231 3 view .LVU9
  54 0016 9A69     		ldr	r2, [r3, #24]
  55 0018 42F00402 		orr	r2, r2, #4
ARM GAS  /tmp/cc1919Ep.s 			page 6


  56 001c 9A61     		str	r2, [r3, #24]
  57              		.loc 1 231 3 view .LVU10
  58 001e 9B69     		ldr	r3, [r3, #24]
  59 0020 03F00403 		and	r3, r3, #4
  60 0024 0193     		str	r3, [sp, #4]
  61              		.loc 1 231 3 view .LVU11
  62 0026 019B     		ldr	r3, [sp, #4]
  63              	.LBE5:
  64              		.loc 1 231 3 view .LVU12
 232:Core/Src/main.c **** 
 233:Core/Src/main.c **** /* USER CODE BEGIN MX_GPIO_Init_2 */
 234:Core/Src/main.c **** /* USER CODE END MX_GPIO_Init_2 */
 235:Core/Src/main.c **** }
  65              		.loc 1 235 1 is_stmt 0 view .LVU13
  66 0028 02B0     		add	sp, sp, #8
  67              	.LCFI1:
  68              		.cfi_def_cfa_offset 0
  69              		@ sp needed
  70 002a 7047     		bx	lr
  71              	.L4:
  72              		.align	2
  73              	.L3:
  74 002c 00100240 		.word	1073876992
  75              		.cfi_endproc
  76              	.LFE69:
  78              		.section	.text.Error_Handler,"ax",%progbits
  79              		.align	1
  80              		.global	Error_Handler
  81              		.syntax unified
  82              		.thumb
  83              		.thumb_func
  85              	Error_Handler:
  86              	.LFB70:
 236:Core/Src/main.c **** 
 237:Core/Src/main.c **** /* USER CODE BEGIN 4 */
 238:Core/Src/main.c **** 
 239:Core/Src/main.c **** /* USER CODE END 4 */
 240:Core/Src/main.c **** 
 241:Core/Src/main.c **** /**
 242:Core/Src/main.c ****   * @brief  This function is executed in case of error occurrence.
 243:Core/Src/main.c ****   * @retval None
 244:Core/Src/main.c ****   */
 245:Core/Src/main.c **** void Error_Handler(void)
 246:Core/Src/main.c **** {
  87              		.loc 1 246 1 is_stmt 1 view -0
  88              		.cfi_startproc
  89              		@ Volatile: function does not return.
  90              		@ args = 0, pretend = 0, frame = 0
  91              		@ frame_needed = 0, uses_anonymous_args = 0
  92              		@ link register save eliminated.
 247:Core/Src/main.c ****   /* USER CODE BEGIN Error_Handler_Debug */
 248:Core/Src/main.c ****   /* User can add his own implementation to report the HAL error return state */
 249:Core/Src/main.c ****   __disable_irq();
  93              		.loc 1 249 3 view .LVU15
  94              	.LBB6:
  95              	.LBI6:
  96              		.file 2 "Drivers/CMSIS/Include/cmsis_gcc.h"
ARM GAS  /tmp/cc1919Ep.s 			page 7


   1:Drivers/CMSIS/Include/cmsis_gcc.h **** /**************************************************************************//**
   2:Drivers/CMSIS/Include/cmsis_gcc.h ****  * @file     cmsis_gcc.h
   3:Drivers/CMSIS/Include/cmsis_gcc.h ****  * @brief    CMSIS compiler GCC header file
   4:Drivers/CMSIS/Include/cmsis_gcc.h ****  * @version  V5.0.4
   5:Drivers/CMSIS/Include/cmsis_gcc.h ****  * @date     09. April 2018
   6:Drivers/CMSIS/Include/cmsis_gcc.h ****  ******************************************************************************/
   7:Drivers/CMSIS/Include/cmsis_gcc.h **** /*
   8:Drivers/CMSIS/Include/cmsis_gcc.h ****  * Copyright (c) 2009-2018 Arm Limited. All rights reserved.
   9:Drivers/CMSIS/Include/cmsis_gcc.h ****  *
  10:Drivers/CMSIS/Include/cmsis_gcc.h ****  * SPDX-License-Identifier: Apache-2.0
  11:Drivers/CMSIS/Include/cmsis_gcc.h ****  *
  12:Drivers/CMSIS/Include/cmsis_gcc.h ****  * Licensed under the Apache License, Version 2.0 (the License); you may
  13:Drivers/CMSIS/Include/cmsis_gcc.h ****  * not use this file except in compliance with the License.
  14:Drivers/CMSIS/Include/cmsis_gcc.h ****  * You may obtain a copy of the License at
  15:Drivers/CMSIS/Include/cmsis_gcc.h ****  *
  16:Drivers/CMSIS/Include/cmsis_gcc.h ****  * www.apache.org/licenses/LICENSE-2.0
  17:Drivers/CMSIS/Include/cmsis_gcc.h ****  *
  18:Drivers/CMSIS/Include/cmsis_gcc.h ****  * Unless required by applicable law or agreed to in writing, software
  19:Drivers/CMSIS/Include/cmsis_gcc.h ****  * distributed under the License is distributed on an AS IS BASIS, WITHOUT
  20:Drivers/CMSIS/Include/cmsis_gcc.h ****  * WARRANTIES OR CONDITIONS OF ANY KIND, either express or implied.
  21:Drivers/CMSIS/Include/cmsis_gcc.h ****  * See the License for the specific language governing permissions and
  22:Drivers/CMSIS/Include/cmsis_gcc.h ****  * limitations under the License.
  23:Drivers/CMSIS/Include/cmsis_gcc.h ****  */
  24:Drivers/CMSIS/Include/cmsis_gcc.h **** 
  25:Drivers/CMSIS/Include/cmsis_gcc.h **** #ifndef __CMSIS_GCC_H
  26:Drivers/CMSIS/Include/cmsis_gcc.h **** #define __CMSIS_GCC_H
  27:Drivers/CMSIS/Include/cmsis_gcc.h **** 
  28:Drivers/CMSIS/Include/cmsis_gcc.h **** /* ignore some GCC warnings */
  29:Drivers/CMSIS/Include/cmsis_gcc.h **** #pragma GCC diagnostic push
  30:Drivers/CMSIS/Include/cmsis_gcc.h **** #pragma GCC diagnostic ignored "-Wsign-conversion"
  31:Drivers/CMSIS/Include/cmsis_gcc.h **** #pragma GCC diagnostic ignored "-Wconversion"
  32:Drivers/CMSIS/Include/cmsis_gcc.h **** #pragma GCC diagnostic ignored "-Wunused-parameter"
  33:Drivers/CMSIS/Include/cmsis_gcc.h **** 
  34:Drivers/CMSIS/Include/cmsis_gcc.h **** /* Fallback for __has_builtin */
  35:Drivers/CMSIS/Include/cmsis_gcc.h **** #ifndef __has_builtin
  36:Drivers/CMSIS/Include/cmsis_gcc.h ****   #define __has_builtin(x) (0)
  37:Drivers/CMSIS/Include/cmsis_gcc.h **** #endif
  38:Drivers/CMSIS/Include/cmsis_gcc.h **** 
  39:Drivers/CMSIS/Include/cmsis_gcc.h **** /* CMSIS compiler specific defines */
  40:Drivers/CMSIS/Include/cmsis_gcc.h **** #ifndef   __ASM
  41:Drivers/CMSIS/Include/cmsis_gcc.h ****   #define __ASM                                  __asm
  42:Drivers/CMSIS/Include/cmsis_gcc.h **** #endif
  43:Drivers/CMSIS/Include/cmsis_gcc.h **** #ifndef   __INLINE
  44:Drivers/CMSIS/Include/cmsis_gcc.h ****   #define __INLINE                               inline
  45:Drivers/CMSIS/Include/cmsis_gcc.h **** #endif
  46:Drivers/CMSIS/Include/cmsis_gcc.h **** #ifndef   __STATIC_INLINE
  47:Drivers/CMSIS/Include/cmsis_gcc.h ****   #define __STATIC_INLINE                        static inline
  48:Drivers/CMSIS/Include/cmsis_gcc.h **** #endif
  49:Drivers/CMSIS/Include/cmsis_gcc.h **** #ifndef   __STATIC_FORCEINLINE                 
  50:Drivers/CMSIS/Include/cmsis_gcc.h ****   #define __STATIC_FORCEINLINE                   __attribute__((always_inline)) static inline
  51:Drivers/CMSIS/Include/cmsis_gcc.h **** #endif                                           
  52:Drivers/CMSIS/Include/cmsis_gcc.h **** #ifndef   __NO_RETURN
  53:Drivers/CMSIS/Include/cmsis_gcc.h ****   #define __NO_RETURN                            __attribute__((__noreturn__))
  54:Drivers/CMSIS/Include/cmsis_gcc.h **** #endif
  55:Drivers/CMSIS/Include/cmsis_gcc.h **** #ifndef   __USED
  56:Drivers/CMSIS/Include/cmsis_gcc.h ****   #define __USED                                 __attribute__((used))
  57:Drivers/CMSIS/Include/cmsis_gcc.h **** #endif
ARM GAS  /tmp/cc1919Ep.s 			page 8


  58:Drivers/CMSIS/Include/cmsis_gcc.h **** #ifndef   __WEAK
  59:Drivers/CMSIS/Include/cmsis_gcc.h ****   #define __WEAK                                 __attribute__((weak))
  60:Drivers/CMSIS/Include/cmsis_gcc.h **** #endif
  61:Drivers/CMSIS/Include/cmsis_gcc.h **** #ifndef   __PACKED
  62:Drivers/CMSIS/Include/cmsis_gcc.h ****   #define __PACKED                               __attribute__((packed, aligned(1)))
  63:Drivers/CMSIS/Include/cmsis_gcc.h **** #endif
  64:Drivers/CMSIS/Include/cmsis_gcc.h **** #ifndef   __PACKED_STRUCT
  65:Drivers/CMSIS/Include/cmsis_gcc.h ****   #define __PACKED_STRUCT                        struct __attribute__((packed, aligned(1)))
  66:Drivers/CMSIS/Include/cmsis_gcc.h **** #endif
  67:Drivers/CMSIS/Include/cmsis_gcc.h **** #ifndef   __PACKED_UNION
  68:Drivers/CMSIS/Include/cmsis_gcc.h ****   #define __PACKED_UNION                         union __attribute__((packed, aligned(1)))
  69:Drivers/CMSIS/Include/cmsis_gcc.h **** #endif
  70:Drivers/CMSIS/Include/cmsis_gcc.h **** #ifndef   __UNALIGNED_UINT32        /* deprecated */
  71:Drivers/CMSIS/Include/cmsis_gcc.h ****   #pragma GCC diagnostic push
  72:Drivers/CMSIS/Include/cmsis_gcc.h ****   #pragma GCC diagnostic ignored "-Wpacked"
  73:Drivers/CMSIS/Include/cmsis_gcc.h ****   #pragma GCC diagnostic ignored "-Wattributes"
  74:Drivers/CMSIS/Include/cmsis_gcc.h ****   struct __attribute__((packed)) T_UINT32 { uint32_t v; };
  75:Drivers/CMSIS/Include/cmsis_gcc.h ****   #pragma GCC diagnostic pop
  76:Drivers/CMSIS/Include/cmsis_gcc.h ****   #define __UNALIGNED_UINT32(x)                  (((struct T_UINT32 *)(x))->v)
  77:Drivers/CMSIS/Include/cmsis_gcc.h **** #endif
  78:Drivers/CMSIS/Include/cmsis_gcc.h **** #ifndef   __UNALIGNED_UINT16_WRITE
  79:Drivers/CMSIS/Include/cmsis_gcc.h ****   #pragma GCC diagnostic push
  80:Drivers/CMSIS/Include/cmsis_gcc.h ****   #pragma GCC diagnostic ignored "-Wpacked"
  81:Drivers/CMSIS/Include/cmsis_gcc.h ****   #pragma GCC diagnostic ignored "-Wattributes"
  82:Drivers/CMSIS/Include/cmsis_gcc.h ****   __PACKED_STRUCT T_UINT16_WRITE { uint16_t v; };
  83:Drivers/CMSIS/Include/cmsis_gcc.h ****   #pragma GCC diagnostic pop
  84:Drivers/CMSIS/Include/cmsis_gcc.h ****   #define __UNALIGNED_UINT16_WRITE(addr, val)    (void)((((struct T_UINT16_WRITE *)(void *)(addr))-
  85:Drivers/CMSIS/Include/cmsis_gcc.h **** #endif
  86:Drivers/CMSIS/Include/cmsis_gcc.h **** #ifndef   __UNALIGNED_UINT16_READ
  87:Drivers/CMSIS/Include/cmsis_gcc.h ****   #pragma GCC diagnostic push
  88:Drivers/CMSIS/Include/cmsis_gcc.h ****   #pragma GCC diagnostic ignored "-Wpacked"
  89:Drivers/CMSIS/Include/cmsis_gcc.h ****   #pragma GCC diagnostic ignored "-Wattributes"
  90:Drivers/CMSIS/Include/cmsis_gcc.h ****   __PACKED_STRUCT T_UINT16_READ { uint16_t v; };
  91:Drivers/CMSIS/Include/cmsis_gcc.h ****   #pragma GCC diagnostic pop
  92:Drivers/CMSIS/Include/cmsis_gcc.h ****   #define __UNALIGNED_UINT16_READ(addr)          (((const struct T_UINT16_READ *)(const void *)(add
  93:Drivers/CMSIS/Include/cmsis_gcc.h **** #endif
  94:Drivers/CMSIS/Include/cmsis_gcc.h **** #ifndef   __UNALIGNED_UINT32_WRITE
  95:Drivers/CMSIS/Include/cmsis_gcc.h ****   #pragma GCC diagnostic push
  96:Drivers/CMSIS/Include/cmsis_gcc.h ****   #pragma GCC diagnostic ignored "-Wpacked"
  97:Drivers/CMSIS/Include/cmsis_gcc.h ****   #pragma GCC diagnostic ignored "-Wattributes"
  98:Drivers/CMSIS/Include/cmsis_gcc.h ****   __PACKED_STRUCT T_UINT32_WRITE { uint32_t v; };
  99:Drivers/CMSIS/Include/cmsis_gcc.h ****   #pragma GCC diagnostic pop
 100:Drivers/CMSIS/Include/cmsis_gcc.h ****   #define __UNALIGNED_UINT32_WRITE(addr, val)    (void)((((struct T_UINT32_WRITE *)(void *)(addr))-
 101:Drivers/CMSIS/Include/cmsis_gcc.h **** #endif
 102:Drivers/CMSIS/Include/cmsis_gcc.h **** #ifndef   __UNALIGNED_UINT32_READ
 103:Drivers/CMSIS/Include/cmsis_gcc.h ****   #pragma GCC diagnostic push
 104:Drivers/CMSIS/Include/cmsis_gcc.h ****   #pragma GCC diagnostic ignored "-Wpacked"
 105:Drivers/CMSIS/Include/cmsis_gcc.h ****   #pragma GCC diagnostic ignored "-Wattributes"
 106:Drivers/CMSIS/Include/cmsis_gcc.h ****   __PACKED_STRUCT T_UINT32_READ { uint32_t v; };
 107:Drivers/CMSIS/Include/cmsis_gcc.h ****   #pragma GCC diagnostic pop
 108:Drivers/CMSIS/Include/cmsis_gcc.h ****   #define __UNALIGNED_UINT32_READ(addr)          (((const struct T_UINT32_READ *)(const void *)(add
 109:Drivers/CMSIS/Include/cmsis_gcc.h **** #endif
 110:Drivers/CMSIS/Include/cmsis_gcc.h **** #ifndef   __ALIGNED
 111:Drivers/CMSIS/Include/cmsis_gcc.h ****   #define __ALIGNED(x)                           __attribute__((aligned(x)))
 112:Drivers/CMSIS/Include/cmsis_gcc.h **** #endif
 113:Drivers/CMSIS/Include/cmsis_gcc.h **** #ifndef   __RESTRICT
 114:Drivers/CMSIS/Include/cmsis_gcc.h ****   #define __RESTRICT                             __restrict
ARM GAS  /tmp/cc1919Ep.s 			page 9


 115:Drivers/CMSIS/Include/cmsis_gcc.h **** #endif
 116:Drivers/CMSIS/Include/cmsis_gcc.h **** 
 117:Drivers/CMSIS/Include/cmsis_gcc.h **** 
 118:Drivers/CMSIS/Include/cmsis_gcc.h **** /* ###########################  Core Function Access  ########################### */
 119:Drivers/CMSIS/Include/cmsis_gcc.h **** /** \ingroup  CMSIS_Core_FunctionInterface
 120:Drivers/CMSIS/Include/cmsis_gcc.h ****     \defgroup CMSIS_Core_RegAccFunctions CMSIS Core Register Access Functions
 121:Drivers/CMSIS/Include/cmsis_gcc.h ****   @{
 122:Drivers/CMSIS/Include/cmsis_gcc.h ****  */
 123:Drivers/CMSIS/Include/cmsis_gcc.h **** 
 124:Drivers/CMSIS/Include/cmsis_gcc.h **** /**
 125:Drivers/CMSIS/Include/cmsis_gcc.h ****   \brief   Enable IRQ Interrupts
 126:Drivers/CMSIS/Include/cmsis_gcc.h ****   \details Enables IRQ interrupts by clearing the I-bit in the CPSR.
 127:Drivers/CMSIS/Include/cmsis_gcc.h ****            Can only be executed in Privileged modes.
 128:Drivers/CMSIS/Include/cmsis_gcc.h ****  */
 129:Drivers/CMSIS/Include/cmsis_gcc.h **** __STATIC_FORCEINLINE void __enable_irq(void)
 130:Drivers/CMSIS/Include/cmsis_gcc.h **** {
 131:Drivers/CMSIS/Include/cmsis_gcc.h ****   __ASM volatile ("cpsie i" : : : "memory");
 132:Drivers/CMSIS/Include/cmsis_gcc.h **** }
 133:Drivers/CMSIS/Include/cmsis_gcc.h **** 
 134:Drivers/CMSIS/Include/cmsis_gcc.h **** 
 135:Drivers/CMSIS/Include/cmsis_gcc.h **** /**
 136:Drivers/CMSIS/Include/cmsis_gcc.h ****   \brief   Disable IRQ Interrupts
 137:Drivers/CMSIS/Include/cmsis_gcc.h ****   \details Disables IRQ interrupts by setting the I-bit in the CPSR.
 138:Drivers/CMSIS/Include/cmsis_gcc.h ****            Can only be executed in Privileged modes.
 139:Drivers/CMSIS/Include/cmsis_gcc.h ****  */
 140:Drivers/CMSIS/Include/cmsis_gcc.h **** __STATIC_FORCEINLINE void __disable_irq(void)
  97              		.loc 2 140 27 view .LVU16
  98              	.LBB7:
 141:Drivers/CMSIS/Include/cmsis_gcc.h **** {
 142:Drivers/CMSIS/Include/cmsis_gcc.h ****   __ASM volatile ("cpsid i" : : : "memory");
  99              		.loc 2 142 3 view .LVU17
 100              		.syntax unified
 101              	@ 142 "Drivers/CMSIS/Include/cmsis_gcc.h" 1
 102 0000 72B6     		cpsid i
 103              	@ 0 "" 2
 104              		.thumb
 105              		.syntax unified
 106              	.L6:
 107              	.LBE7:
 108              	.LBE6:
 250:Core/Src/main.c ****   while (1)
 109              		.loc 1 250 3 view .LVU18
 251:Core/Src/main.c ****   {
 252:Core/Src/main.c ****   }
 110              		.loc 1 252 3 view .LVU19
 250:Core/Src/main.c ****   while (1)
 111              		.loc 1 250 9 view .LVU20
 112 0002 FEE7     		b	.L6
 113              		.cfi_endproc
 114              	.LFE70:
 116              		.section	.text.MX_I2C2_Init,"ax",%progbits
 117              		.align	1
 118              		.syntax unified
 119              		.thumb
 120              		.thumb_func
 122              	MX_I2C2_Init:
 123              	.LFB67:
ARM GAS  /tmp/cc1919Ep.s 			page 10


 158:Core/Src/main.c **** 
 124              		.loc 1 158 1 view -0
 125              		.cfi_startproc
 126              		@ args = 0, pretend = 0, frame = 0
 127              		@ frame_needed = 0, uses_anonymous_args = 0
 128 0000 08B5     		push	{r3, lr}
 129              	.LCFI2:
 130              		.cfi_def_cfa_offset 8
 131              		.cfi_offset 3, -8
 132              		.cfi_offset 14, -4
 167:Core/Src/main.c ****   hi2c2.Init.ClockSpeed = 100000;
 133              		.loc 1 167 3 view .LVU22
 167:Core/Src/main.c ****   hi2c2.Init.ClockSpeed = 100000;
 134              		.loc 1 167 18 is_stmt 0 view .LVU23
 135 0002 0A48     		ldr	r0, .L11
 136 0004 0A4B     		ldr	r3, .L11+4
 137 0006 0360     		str	r3, [r0]
 168:Core/Src/main.c ****   hi2c2.Init.DutyCycle = I2C_DUTYCYCLE_2;
 138              		.loc 1 168 3 is_stmt 1 view .LVU24
 168:Core/Src/main.c ****   hi2c2.Init.DutyCycle = I2C_DUTYCYCLE_2;
 139              		.loc 1 168 25 is_stmt 0 view .LVU25
 140 0008 0A4B     		ldr	r3, .L11+8
 141 000a 4360     		str	r3, [r0, #4]
 169:Core/Src/main.c ****   hi2c2.Init.OwnAddress1 = 0;
 142              		.loc 1 169 3 is_stmt 1 view .LVU26
 169:Core/Src/main.c ****   hi2c2.Init.OwnAddress1 = 0;
 143              		.loc 1 169 24 is_stmt 0 view .LVU27
 144 000c 0023     		movs	r3, #0
 145 000e 8360     		str	r3, [r0, #8]
 170:Core/Src/main.c ****   hi2c2.Init.AddressingMode = I2C_ADDRESSINGMODE_7BIT;
 146              		.loc 1 170 3 is_stmt 1 view .LVU28
 170:Core/Src/main.c ****   hi2c2.Init.AddressingMode = I2C_ADDRESSINGMODE_7BIT;
 147              		.loc 1 170 26 is_stmt 0 view .LVU29
 148 0010 C360     		str	r3, [r0, #12]
 171:Core/Src/main.c ****   hi2c2.Init.DualAddressMode = I2C_DUALADDRESS_DISABLE;
 149              		.loc 1 171 3 is_stmt 1 view .LVU30
 171:Core/Src/main.c ****   hi2c2.Init.DualAddressMode = I2C_DUALADDRESS_DISABLE;
 150              		.loc 1 171 29 is_stmt 0 view .LVU31
 151 0012 4FF48042 		mov	r2, #16384
 152 0016 0261     		str	r2, [r0, #16]
 172:Core/Src/main.c ****   hi2c2.Init.OwnAddress2 = 0;
 153              		.loc 1 172 3 is_stmt 1 view .LVU32
 172:Core/Src/main.c ****   hi2c2.Init.OwnAddress2 = 0;
 154              		.loc 1 172 30 is_stmt 0 view .LVU33
 155 0018 4361     		str	r3, [r0, #20]
 173:Core/Src/main.c ****   hi2c2.Init.GeneralCallMode = I2C_GENERALCALL_DISABLE;
 156              		.loc 1 173 3 is_stmt 1 view .LVU34
 173:Core/Src/main.c ****   hi2c2.Init.GeneralCallMode = I2C_GENERALCALL_DISABLE;
 157              		.loc 1 173 26 is_stmt 0 view .LVU35
 158 001a 8361     		str	r3, [r0, #24]
 174:Core/Src/main.c ****   hi2c2.Init.NoStretchMode = I2C_NOSTRETCH_DISABLE;
 159              		.loc 1 174 3 is_stmt 1 view .LVU36
 174:Core/Src/main.c ****   hi2c2.Init.NoStretchMode = I2C_NOSTRETCH_DISABLE;
 160              		.loc 1 174 30 is_stmt 0 view .LVU37
 161 001c C361     		str	r3, [r0, #28]
 175:Core/Src/main.c ****   if (HAL_I2C_Init(&hi2c2) != HAL_OK)
 162              		.loc 1 175 3 is_stmt 1 view .LVU38
ARM GAS  /tmp/cc1919Ep.s 			page 11


 175:Core/Src/main.c ****   if (HAL_I2C_Init(&hi2c2) != HAL_OK)
 163              		.loc 1 175 28 is_stmt 0 view .LVU39
 164 001e 0362     		str	r3, [r0, #32]
 176:Core/Src/main.c ****   {
 165              		.loc 1 176 3 is_stmt 1 view .LVU40
 176:Core/Src/main.c ****   {
 166              		.loc 1 176 7 is_stmt 0 view .LVU41
 167 0020 FFF7FEFF 		bl	HAL_I2C_Init
 168              	.LVL0:
 176:Core/Src/main.c ****   {
 169              		.loc 1 176 6 discriminator 1 view .LVU42
 170 0024 00B9     		cbnz	r0, .L10
 184:Core/Src/main.c **** 
 171              		.loc 1 184 1 view .LVU43
 172 0026 08BD     		pop	{r3, pc}
 173              	.L10:
 178:Core/Src/main.c ****   }
 174              		.loc 1 178 5 is_stmt 1 view .LVU44
 175 0028 FFF7FEFF 		bl	Error_Handler
 176              	.LVL1:
 177              	.L12:
 178              		.align	2
 179              	.L11:
 180 002c 00000000 		.word	hi2c2
 181 0030 00580040 		.word	1073764352
 182 0034 A0860100 		.word	100000
 183              		.cfi_endproc
 184              	.LFE67:
 186              		.section	.text.MX_USART1_UART_Init,"ax",%progbits
 187              		.align	1
 188              		.syntax unified
 189              		.thumb
 190              		.thumb_func
 192              	MX_USART1_UART_Init:
 193              	.LFB68:
 192:Core/Src/main.c **** 
 194              		.loc 1 192 1 view -0
 195              		.cfi_startproc
 196              		@ args = 0, pretend = 0, frame = 0
 197              		@ frame_needed = 0, uses_anonymous_args = 0
 198 0000 08B5     		push	{r3, lr}
 199              	.LCFI3:
 200              		.cfi_def_cfa_offset 8
 201              		.cfi_offset 3, -8
 202              		.cfi_offset 14, -4
 201:Core/Src/main.c ****   huart1.Init.BaudRate = 115200;
 203              		.loc 1 201 3 view .LVU46
 201:Core/Src/main.c ****   huart1.Init.BaudRate = 115200;
 204              		.loc 1 201 19 is_stmt 0 view .LVU47
 205 0002 0A48     		ldr	r0, .L17
 206 0004 0A4B     		ldr	r3, .L17+4
 207 0006 0360     		str	r3, [r0]
 202:Core/Src/main.c ****   huart1.Init.WordLength = UART_WORDLENGTH_8B;
 208              		.loc 1 202 3 is_stmt 1 view .LVU48
 202:Core/Src/main.c ****   huart1.Init.WordLength = UART_WORDLENGTH_8B;
 209              		.loc 1 202 24 is_stmt 0 view .LVU49
 210 0008 4FF4E133 		mov	r3, #115200
ARM GAS  /tmp/cc1919Ep.s 			page 12


 211 000c 4360     		str	r3, [r0, #4]
 203:Core/Src/main.c ****   huart1.Init.StopBits = UART_STOPBITS_1;
 212              		.loc 1 203 3 is_stmt 1 view .LVU50
 203:Core/Src/main.c ****   huart1.Init.StopBits = UART_STOPBITS_1;
 213              		.loc 1 203 26 is_stmt 0 view .LVU51
 214 000e 0023     		movs	r3, #0
 215 0010 8360     		str	r3, [r0, #8]
 204:Core/Src/main.c ****   huart1.Init.Parity = UART_PARITY_NONE;
 216              		.loc 1 204 3 is_stmt 1 view .LVU52
 204:Core/Src/main.c ****   huart1.Init.Parity = UART_PARITY_NONE;
 217              		.loc 1 204 24 is_stmt 0 view .LVU53
 218 0012 C360     		str	r3, [r0, #12]
 205:Core/Src/main.c ****   huart1.Init.Mode = UART_MODE_TX_RX;
 219              		.loc 1 205 3 is_stmt 1 view .LVU54
 205:Core/Src/main.c ****   huart1.Init.Mode = UART_MODE_TX_RX;
 220              		.loc 1 205 22 is_stmt 0 view .LVU55
 221 0014 0361     		str	r3, [r0, #16]
 206:Core/Src/main.c ****   huart1.Init.HwFlowCtl = UART_HWCONTROL_NONE;
 222              		.loc 1 206 3 is_stmt 1 view .LVU56
 206:Core/Src/main.c ****   huart1.Init.HwFlowCtl = UART_HWCONTROL_NONE;
 223              		.loc 1 206 20 is_stmt 0 view .LVU57
 224 0016 0C22     		movs	r2, #12
 225 0018 4261     		str	r2, [r0, #20]
 207:Core/Src/main.c ****   huart1.Init.OverSampling = UART_OVERSAMPLING_16;
 226              		.loc 1 207 3 is_stmt 1 view .LVU58
 207:Core/Src/main.c ****   huart1.Init.OverSampling = UART_OVERSAMPLING_16;
 227              		.loc 1 207 25 is_stmt 0 view .LVU59
 228 001a 8361     		str	r3, [r0, #24]
 208:Core/Src/main.c ****   if (HAL_UART_Init(&huart1) != HAL_OK)
 229              		.loc 1 208 3 is_stmt 1 view .LVU60
 208:Core/Src/main.c ****   if (HAL_UART_Init(&huart1) != HAL_OK)
 230              		.loc 1 208 28 is_stmt 0 view .LVU61
 231 001c C361     		str	r3, [r0, #28]
 209:Core/Src/main.c ****   {
 232              		.loc 1 209 3 is_stmt 1 view .LVU62
 209:Core/Src/main.c ****   {
 233              		.loc 1 209 7 is_stmt 0 view .LVU63
 234 001e FFF7FEFF 		bl	HAL_UART_Init
 235              	.LVL2:
 209:Core/Src/main.c ****   {
 236              		.loc 1 209 6 discriminator 1 view .LVU64
 237 0022 00B9     		cbnz	r0, .L16
 217:Core/Src/main.c **** 
 238              		.loc 1 217 1 view .LVU65
 239 0024 08BD     		pop	{r3, pc}
 240              	.L16:
 211:Core/Src/main.c ****   }
 241              		.loc 1 211 5 is_stmt 1 view .LVU66
 242 0026 FFF7FEFF 		bl	Error_Handler
 243              	.LVL3:
 244              	.L18:
 245 002a 00BF     		.align	2
 246              	.L17:
 247 002c 00000000 		.word	huart1
 248 0030 00380140 		.word	1073821696
 249              		.cfi_endproc
 250              	.LFE68:
ARM GAS  /tmp/cc1919Ep.s 			page 13


 252              		.section	.text.SystemClock_Config,"ax",%progbits
 253              		.align	1
 254              		.global	SystemClock_Config
 255              		.syntax unified
 256              		.thumb
 257              		.thumb_func
 259              	SystemClock_Config:
 260              	.LFB66:
 121:Core/Src/main.c ****   RCC_OscInitTypeDef RCC_OscInitStruct = {0};
 261              		.loc 1 121 1 view -0
 262              		.cfi_startproc
 263              		@ args = 0, pretend = 0, frame = 64
 264              		@ frame_needed = 0, uses_anonymous_args = 0
 265 0000 00B5     		push	{lr}
 266              	.LCFI4:
 267              		.cfi_def_cfa_offset 4
 268              		.cfi_offset 14, -4
 269 0002 91B0     		sub	sp, sp, #68
 270              	.LCFI5:
 271              		.cfi_def_cfa_offset 72
 122:Core/Src/main.c ****   RCC_ClkInitTypeDef RCC_ClkInitStruct = {0};
 272              		.loc 1 122 3 view .LVU68
 122:Core/Src/main.c ****   RCC_ClkInitTypeDef RCC_ClkInitStruct = {0};
 273              		.loc 1 122 22 is_stmt 0 view .LVU69
 274 0004 2822     		movs	r2, #40
 275 0006 0021     		movs	r1, #0
 276 0008 06A8     		add	r0, sp, #24
 277 000a FFF7FEFF 		bl	memset
 278              	.LVL4:
 123:Core/Src/main.c **** 
 279              		.loc 1 123 3 is_stmt 1 view .LVU70
 123:Core/Src/main.c **** 
 280              		.loc 1 123 22 is_stmt 0 view .LVU71
 281 000e 0023     		movs	r3, #0
 282 0010 0193     		str	r3, [sp, #4]
 283 0012 0293     		str	r3, [sp, #8]
 284 0014 0393     		str	r3, [sp, #12]
 285 0016 0493     		str	r3, [sp, #16]
 286 0018 0593     		str	r3, [sp, #20]
 128:Core/Src/main.c ****   RCC_OscInitStruct.HSIState = RCC_HSI_ON;
 287              		.loc 1 128 3 is_stmt 1 view .LVU72
 128:Core/Src/main.c ****   RCC_OscInitStruct.HSIState = RCC_HSI_ON;
 288              		.loc 1 128 36 is_stmt 0 view .LVU73
 289 001a 0223     		movs	r3, #2
 290 001c 0693     		str	r3, [sp, #24]
 129:Core/Src/main.c ****   RCC_OscInitStruct.HSICalibrationValue = RCC_HSICALIBRATION_DEFAULT;
 291              		.loc 1 129 3 is_stmt 1 view .LVU74
 129:Core/Src/main.c ****   RCC_OscInitStruct.HSICalibrationValue = RCC_HSICALIBRATION_DEFAULT;
 292              		.loc 1 129 30 is_stmt 0 view .LVU75
 293 001e 0123     		movs	r3, #1
 294 0020 0A93     		str	r3, [sp, #40]
 130:Core/Src/main.c ****   RCC_OscInitStruct.PLL.PLLState = RCC_PLL_NONE;
 295              		.loc 1 130 3 is_stmt 1 view .LVU76
 130:Core/Src/main.c ****   RCC_OscInitStruct.PLL.PLLState = RCC_PLL_NONE;
 296              		.loc 1 130 41 is_stmt 0 view .LVU77
 297 0022 1023     		movs	r3, #16
 298 0024 0B93     		str	r3, [sp, #44]
ARM GAS  /tmp/cc1919Ep.s 			page 14


 131:Core/Src/main.c ****   if (HAL_RCC_OscConfig(&RCC_OscInitStruct) != HAL_OK)
 299              		.loc 1 131 3 is_stmt 1 view .LVU78
 132:Core/Src/main.c ****   {
 300              		.loc 1 132 3 view .LVU79
 132:Core/Src/main.c ****   {
 301              		.loc 1 132 7 is_stmt 0 view .LVU80
 302 0026 06A8     		add	r0, sp, #24
 303 0028 FFF7FEFF 		bl	HAL_RCC_OscConfig
 304              	.LVL5:
 132:Core/Src/main.c ****   {
 305              		.loc 1 132 6 discriminator 1 view .LVU81
 306 002c 68B9     		cbnz	r0, .L23
 139:Core/Src/main.c ****                               |RCC_CLOCKTYPE_PCLK1|RCC_CLOCKTYPE_PCLK2;
 307              		.loc 1 139 3 is_stmt 1 view .LVU82
 139:Core/Src/main.c ****                               |RCC_CLOCKTYPE_PCLK1|RCC_CLOCKTYPE_PCLK2;
 308              		.loc 1 139 31 is_stmt 0 view .LVU83
 309 002e 0F23     		movs	r3, #15
 310 0030 0193     		str	r3, [sp, #4]
 141:Core/Src/main.c ****   RCC_ClkInitStruct.AHBCLKDivider = RCC_SYSCLK_DIV1;
 311              		.loc 1 141 3 is_stmt 1 view .LVU84
 141:Core/Src/main.c ****   RCC_ClkInitStruct.AHBCLKDivider = RCC_SYSCLK_DIV1;
 312              		.loc 1 141 34 is_stmt 0 view .LVU85
 313 0032 0021     		movs	r1, #0
 314 0034 0291     		str	r1, [sp, #8]
 142:Core/Src/main.c ****   RCC_ClkInitStruct.APB1CLKDivider = RCC_HCLK_DIV1;
 315              		.loc 1 142 3 is_stmt 1 view .LVU86
 142:Core/Src/main.c ****   RCC_ClkInitStruct.APB1CLKDivider = RCC_HCLK_DIV1;
 316              		.loc 1 142 35 is_stmt 0 view .LVU87
 317 0036 0391     		str	r1, [sp, #12]
 143:Core/Src/main.c ****   RCC_ClkInitStruct.APB2CLKDivider = RCC_HCLK_DIV1;
 318              		.loc 1 143 3 is_stmt 1 view .LVU88
 143:Core/Src/main.c ****   RCC_ClkInitStruct.APB2CLKDivider = RCC_HCLK_DIV1;
 319              		.loc 1 143 36 is_stmt 0 view .LVU89
 320 0038 0491     		str	r1, [sp, #16]
 144:Core/Src/main.c **** 
 321              		.loc 1 144 3 is_stmt 1 view .LVU90
 144:Core/Src/main.c **** 
 322              		.loc 1 144 36 is_stmt 0 view .LVU91
 323 003a 0591     		str	r1, [sp, #20]
 146:Core/Src/main.c ****   {
 324              		.loc 1 146 3 is_stmt 1 view .LVU92
 146:Core/Src/main.c ****   {
 325              		.loc 1 146 7 is_stmt 0 view .LVU93
 326 003c 01A8     		add	r0, sp, #4
 327 003e FFF7FEFF 		bl	HAL_RCC_ClockConfig
 328              	.LVL6:
 146:Core/Src/main.c ****   {
 329              		.loc 1 146 6 discriminator 1 view .LVU94
 330 0042 20B9     		cbnz	r0, .L24
 150:Core/Src/main.c **** 
 331              		.loc 1 150 1 view .LVU95
 332 0044 11B0     		add	sp, sp, #68
 333              	.LCFI6:
 334              		.cfi_remember_state
 335              		.cfi_def_cfa_offset 4
 336              		@ sp needed
 337 0046 5DF804FB 		ldr	pc, [sp], #4
ARM GAS  /tmp/cc1919Ep.s 			page 15


 338              	.L23:
 339              	.LCFI7:
 340              		.cfi_restore_state
 134:Core/Src/main.c ****   }
 341              		.loc 1 134 5 is_stmt 1 view .LVU96
 342 004a FFF7FEFF 		bl	Error_Handler
 343              	.LVL7:
 344              	.L24:
 148:Core/Src/main.c ****   }
 345              		.loc 1 148 5 view .LVU97
 346 004e FFF7FEFF 		bl	Error_Handler
 347              	.LVL8:
 348              		.cfi_endproc
 349              	.LFE66:
 351              		.section	.text.main,"ax",%progbits
 352              		.align	1
 353              		.global	main
 354              		.syntax unified
 355              		.thumb
 356              		.thumb_func
 358              	main:
 359              	.LFB65:
  70:Core/Src/main.c ****   /* USER CODE BEGIN 1 */
 360              		.loc 1 70 1 view -0
 361              		.cfi_startproc
 362              		@ args = 0, pretend = 0, frame = 0
 363              		@ frame_needed = 0, uses_anonymous_args = 0
 364 0000 08B5     		push	{r3, lr}
 365              	.LCFI8:
 366              		.cfi_def_cfa_offset 8
 367              		.cfi_offset 3, -8
 368              		.cfi_offset 14, -4
  78:Core/Src/main.c **** 
 369              		.loc 1 78 3 view .LVU99
 370 0002 FFF7FEFF 		bl	HAL_Init
 371              	.LVL9:
  85:Core/Src/main.c **** 
 372              		.loc 1 85 3 view .LVU100
 373 0006 FFF7FEFF 		bl	SystemClock_Config
 374              	.LVL10:
  92:Core/Src/main.c ****   MX_I2C2_Init();
 375              		.loc 1 92 3 view .LVU101
 376 000a FFF7FEFF 		bl	MX_GPIO_Init
 377              	.LVL11:
  93:Core/Src/main.c ****   MX_USART1_UART_Init();
 378              		.loc 1 93 3 view .LVU102
 379 000e FFF7FEFF 		bl	MX_I2C2_Init
 380              	.LVL12:
  94:Core/Src/main.c ****   /* USER CODE BEGIN 2 */
 381              		.loc 1 94 3 view .LVU103
 382 0012 FFF7FEFF 		bl	MX_USART1_UART_Init
 383              	.LVL13:
 102:Core/Src/main.c **** 
 384              		.loc 1 102 3 view .LVU104
 102:Core/Src/main.c **** 
 385              		.loc 1 102 26 is_stmt 0 view .LVU105
 386 0016 FFF7FEFF 		bl	eeprom_check_link
ARM GAS  /tmp/cc1919Ep.s 			page 16


 387              	.LVL14:
 104:Core/Src/main.c ****     Error_Handler();
 388              		.loc 1 104 3 is_stmt 1 view .LVU106
 104:Core/Src/main.c ****     Error_Handler();
 389              		.loc 1 104 6 is_stmt 0 view .LVU107
 390 001a 00B9     		cbnz	r0, .L28
 391              	.L26:
 107:Core/Src/main.c ****   {
 392              		.loc 1 107 3 is_stmt 1 view .LVU108
 112:Core/Src/main.c ****   /* USER CODE END 3 */
 393              		.loc 1 112 3 view .LVU109
 107:Core/Src/main.c ****   {
 394              		.loc 1 107 9 view .LVU110
 395 001c FEE7     		b	.L26
 396              	.L28:
 105:Core/Src/main.c **** 
 397              		.loc 1 105 5 view .LVU111
 398 001e FFF7FEFF 		bl	Error_Handler
 399              	.LVL15:
 105:Core/Src/main.c **** 
 400              		.loc 1 105 5 is_stmt 0 view .LVU112
 401              		.cfi_endproc
 402              	.LFE65:
 404              		.global	eeprom_i2c
 405              		.section	.data.eeprom_i2c,"aw"
 406              		.align	2
 409              	eeprom_i2c:
 410 0000 00000000 		.word	hi2c2
 411              		.global	huart1
 412              		.section	.bss.huart1,"aw",%nobits
 413              		.align	2
 416              	huart1:
 417 0000 00000000 		.space	72
 417      00000000 
 417      00000000 
 417      00000000 
 417      00000000 
 418              		.global	hi2c2
 419              		.section	.bss.hi2c2,"aw",%nobits
 420              		.align	2
 423              	hi2c2:
 424 0000 00000000 		.space	84
 424      00000000 
 424      00000000 
 424      00000000 
 424      00000000 
 425              		.text
 426              	.Letext0:
 427              		.file 3 "/usr/local/src/arm-gnu-toolchain-13.2/arm-none-eabi/include/machine/_default_types.h"
 428              		.file 4 "/usr/local/src/arm-gnu-toolchain-13.2/arm-none-eabi/include/sys/_stdint.h"
 429              		.file 5 "Drivers/CMSIS/Device/ST/STM32F1xx/Include/stm32f103xb.h"
 430              		.file 6 "Drivers/STM32F1xx_HAL_Driver/Inc/stm32f1xx_hal_def.h"
 431              		.file 7 "Drivers/STM32F1xx_HAL_Driver/Inc/stm32f1xx_hal_rcc.h"
 432              		.file 8 "Drivers/STM32F1xx_HAL_Driver/Inc/stm32f1xx_hal_rcc_ex.h"
 433              		.file 9 "Drivers/STM32F1xx_HAL_Driver/Inc/stm32f1xx_hal_dma.h"
 434              		.file 10 "Drivers/STM32F1xx_HAL_Driver/Inc/stm32f1xx_hal_i2c.h"
 435              		.file 11 "Drivers/STM32F1xx_HAL_Driver/Inc/stm32f1xx_hal_uart.h"
ARM GAS  /tmp/cc1919Ep.s 			page 17


 436              		.file 12 "External/eeprom_driver/Inc/eeprom_defs.h"
 437              		.file 13 "External/eeprom_driver/Inc/eeprom_driver.h"
 438              		.file 14 "Drivers/STM32F1xx_HAL_Driver/Inc/stm32f1xx_hal.h"
 439              		.file 15 "<built-in>"
ARM GAS  /tmp/cc1919Ep.s 			page 18

